; Function Attrs: nounwind uwtable
define hidden void @evmap_io_active_(ptr noundef readonly captures(none) %0, i32 noundef %1, i16 noundef signext %2) local_unnamed_addr #1 {
  %4 = getelementptr inbounds nuw i8, ptr %0, i64 808
  %5 = icmp slt i32 %1, 0
  br i1 %5, label %.loopexit, label %6

6:                                                ; preds = %3
  %7 = getelementptr inbounds nuw i8, ptr %0, i64 816
  %8 = load i32, ptr %7, align 8
  %.not = icmp slt i32 %1, %8
  br i1 %.not, label %9, label %.loopexit

9:                                                ; preds = %6
  %10 = load ptr, ptr %4, align 8
  %11 = zext nneg i32 %1 to i64
  %12 = getelementptr inbounds nuw ptr, ptr %10, i64 %11
  %13 = load ptr, ptr %12, align 8
  %14 = icmp eq ptr %13, null
  br i1 %14, label %.loopexit, label %.preheader

.preheader:                                       ; preds = %9
  %.018 = load ptr, ptr %13, align 8
  %.not1619 = icmp eq ptr %.018, null
  br i1 %.not1619, label %.loopexit, label %.lr.ph

.lr.ph:                                           ; preds = %.preheader
  %15 = sext i16 %2 to i32
  %invariant.op = and i32 %15, -33
  br label %16

16:                                               ; preds = %.lr.ph, %22
  %.020 = phi ptr [ %.018, %.lr.ph ], [ %.0, %22 ]
  %17 = getelementptr inbounds nuw i8, ptr %.020, i64 60
  %18 = load i16, ptr %17, align 4
  %19 = sext i16 %18 to i32
  %.reass = and i32 %invariant.op, %19
  %.not17 = icmp eq i32 %.reass, 0
  br i1 %.not17, label %22, label %20

20:                                               ; preds = %16
  %21 = and i32 %19, %15
  tail call void @event_active_nolock_(ptr noundef nonnull %.020, i32 noundef %21, i16 noundef signext 1) #7
  br label %22

22:                                               ; preds = %16, %20
  %23 = getelementptr inbounds nuw i8, ptr %.020, i64 72
  %.0 = load ptr, ptr %23, align 8
  %.not16 = icmp eq ptr %.0, null
  br i1 %.not16, label %.loopexit, label %16, !llvm.loop !8

.loopexit:                                        ; preds = %22, %.preheader, %9, %3, %6
  ret void
}